target datalayout = "e-m:e-p270:32:32-p271:32:32-p272:64:64-i64:64-i128:128-f80:128-n8:16:32:64-S128"
target triple = "x86_64-pc-linux-gnu"

; Function Attrs: mustprogress nounwind uwtable
define noundef float @_ZN5faiss11fvec_L1_refEPKfS1_m(ptr noundef %0, ptr noundef %1, i64 noundef %2) #0 {
  %4 = alloca ptr, align 8
  %5 = alloca ptr, align 8
  %6 = alloca i64, align 8
  %7 = alloca i64, align 8
  %8 = alloca float, align 4
  %9 = alloca float, align 4
  store ptr %0, ptr %4, align 8, !tbaa !4
  store ptr %1, ptr %5, align 8, !tbaa !4
  store i64 %2, ptr %6, align 8, !tbaa !9
  call void @llvm.lifetime.start.p0(i64 8, ptr %7) #13
  call void @llvm.lifetime.start.p0(i64 4, ptr %8) #13
  store float 0.000000e+00, ptr %8, align 4, !tbaa !11
  store i64 0, ptr %7, align 8, !tbaa !9
  br label %10

10:                                               ; preds = %31, %3
  %11 = load i64, ptr %7, align 8, !tbaa !9
  %12 = load i64, ptr %6, align 8, !tbaa !9
  %13 = icmp ult i64 %11, %12
  br i1 %13, label %14, label %34

14:                                               ; preds = %10
  call void @llvm.lifetime.start.p0(i64 4, ptr %9) #13
  %15 = load ptr, ptr %4, align 8, !tbaa !4
  %16 = load i64, ptr %7, align 8, !tbaa !9
  %17 = getelementptr inbounds nuw float, ptr %15, i64 %16
  %18 = load float, ptr %17, align 4, !tbaa !11
  %19 = load ptr, ptr %5, align 8, !tbaa !4
  %20 = load i64, ptr %7, align 8, !tbaa !9
  %21 = getelementptr inbounds nuw float, ptr %19, i64 %20
  %22 = load float, ptr %21, align 4, !tbaa !11
  %23 = fsub float %18, %22
  store float %23, ptr %9, align 4, !tbaa !11
  %24 = load float, ptr %9, align 4, !tbaa !11
  %25 = fpext float %24 to double
  %26 = call double @llvm.fabs.f64(double %25)
  %27 = load float, ptr %8, align 4, !tbaa !11
  %28 = fpext float %27 to double
  %29 = fadd double %28, %26
  %30 = fptrunc double %29 to float
  store float %30, ptr %8, align 4, !tbaa !11
  call void @llvm.lifetime.end.p0(i64 4, ptr %9) #13
  br label %31

31:                                               ; preds = %14
  %32 = load i64, ptr %7, align 8, !tbaa !9
  %33 = add i64 %32, 1
  store i64 %33, ptr %7, align 8, !tbaa !9
  br label %10, !llvm.loop !13

34:                                               ; preds = %10
  %35 = load float, ptr %8, align 4, !tbaa !11
  call void @llvm.lifetime.end.p0(i64 4, ptr %8) #13
  call void @llvm.lifetime.end.p0(i64 8, ptr %7) #13
  ret float %35
}